target datalayout = "e-m:e-p270:32:32-p271:32:32-p272:64:64-i64:64-i128:128-f80:128-n8:16:32:64-S128"
target triple = "x86_64-pc-linux-gnu"

%struct.Rwr_Man_t_ = type { i32, ptr, ptr, ptr, ptr, ptr, ptr, ptr, ptr, ptr, ptr, ptr, i32, i32, i32, i32, i32, ptr, ptr, ptr, ptr, ptr, i32, i32, i32, i32, i32, [222 x i32], i32, i32, i32, i64, i64, i64, i64, i64, i64, i64 }
%struct.Rwr_Node_t_ = type <{ i32, i32, i16, i16, i16, i32, [6 x i8], ptr, ptr, ptr }>
%struct.Vec_Ptr_t_ = type { i32, i32, ptr }

; Function Attrs: inlinehint nounwind uwtable
define internal void @Vec_PtrGrow(ptr noundef %0, i32 noundef %1) #2 {
  %3 = alloca ptr, align 8
  %4 = alloca i32, align 4
  store ptr %0, ptr %3, align 8, !tbaa !39
  store i32 %1, ptr %4, align 4, !tbaa !8
  %5 = load ptr, ptr %3, align 8, !tbaa !39
  %6 = getelementptr inbounds nuw %struct.Vec_Ptr_t_, ptr %5, i32 0, i32 0
  %7 = load i32, ptr %6, align 8, !tbaa !53
  %8 = load i32, ptr %4, align 4, !tbaa !8
  %9 = icmp sge i32 %7, %8
  br i1 %9, label %10, label %11

10:                                               ; preds = %2
  br label %36

11:                                               ; preds = %2
  %12 = load ptr, ptr %3, align 8, !tbaa !39
  %13 = getelementptr inbounds nuw %struct.Vec_Ptr_t_, ptr %12, i32 0, i32 2
  %14 = load ptr, ptr %13, align 8, !tbaa !34
  %15 = icmp ne ptr %14, null
  br i1 %15, label %16, label %24

16:                                               ; preds = %11
  %17 = load ptr, ptr %3, align 8, !tbaa !39
  %18 = getelementptr inbounds nuw %struct.Vec_Ptr_t_, ptr %17, i32 0, i32 2
  %19 = load ptr, ptr %18, align 8, !tbaa !34
  %20 = load i32, ptr %4, align 4, !tbaa !8
  %21 = sext i32 %20 to i64
  %22 = mul i64 8, %21
  %23 = call ptr @realloc(ptr noundef %19, i64 noundef %22) #7
  br label %29

24:                                               ; preds = %11
  %25 = load i32, ptr %4, align 4, !tbaa !8
  %26 = sext i32 %25 to i64
  %27 = mul i64 8, %26
  %28 = call noalias ptr @malloc(i64 noundef %27) #8
  br label %29

29:                                               ; preds = %24, %16
  %30 = phi ptr [ %23, %16 ], [ %28, %24 ]
  %31 = load ptr, ptr %3, align 8, !tbaa !39
  %32 = getelementptr inbounds nuw %struct.Vec_Ptr_t_, ptr %31, i32 0, i32 2
  store ptr %30, ptr %32, align 8, !tbaa !34
  %33 = load i32, ptr %4, align 4, !tbaa !8
  %34 = load ptr, ptr %3, align 8, !tbaa !39
  %35 = getelementptr inbounds nuw %struct.Vec_Ptr_t_, ptr %34, i32 0, i32 0
  store i32 %33, ptr %35, align 8, !tbaa !53
  br label %36

36:                                               ; preds = %29, %10
  ret void
}

; Function Attrs: inlinehint nounwind uwtable
define internal void @Vec_PtrPush(ptr noundef %0, ptr noundef %1) #2 {
  %3 = alloca ptr, align 8
  %4 = alloca ptr, align 8
  store ptr %0, ptr %3, align 8, !tbaa !39
  store ptr %1, ptr %4, align 8, !tbaa !35
  %5 = load ptr, ptr %3, align 8, !tbaa !39
  %6 = getelementptr inbounds nuw %struct.Vec_Ptr_t_, ptr %5, i32 0, i32 1
  %7 = load i32, ptr %6, align 4, !tbaa !24
  %8 = load ptr, ptr %3, align 8, !tbaa !39
  %9 = getelementptr inbounds nuw %struct.Vec_Ptr_t_, ptr %8, i32 0, i32 0
  %10 = load i32, ptr %9, align 8, !tbaa !53
  %11 = icmp eq i32 %7, %10
  br i1 %11, label %12, label %26

12:                                               ; preds = %2
  %13 = load ptr, ptr %3, align 8, !tbaa !39
  %14 = getelementptr inbounds nuw %struct.Vec_Ptr_t_, ptr %13, i32 0, i32 0
  %15 = load i32, ptr %14, align 8, !tbaa !53
  %16 = icmp slt i32 %15, 16
  br i1 %16, label %17, label %19

17:                                               ; preds = %12
  %18 = load ptr, ptr %3, align 8, !tbaa !39
  call void @Vec_PtrGrow(ptr noundef %18, i32 noundef 16)
  br label %25

19:                                               ; preds = %12
  %20 = load ptr, ptr %3, align 8, !tbaa !39
  %21 = load ptr, ptr %3, align 8, !tbaa !39
  %22 = getelementptr inbounds nuw %struct.Vec_Ptr_t_, ptr %21, i32 0, i32 0
  %23 = load i32, ptr %22, align 8, !tbaa !53
  %24 = mul nsw i32 2, %23
  call void @Vec_PtrGrow(ptr noundef %20, i32 noundef %24)
  br label %25

25:                                               ; preds = %19, %17
  br label %26

26:                                               ; preds = %25, %2
  %27 = load ptr, ptr %4, align 8, !tbaa !35
  %28 = load ptr, ptr %3, align 8, !tbaa !39
  %29 = getelementptr inbounds nuw %struct.Vec_Ptr_t_, ptr %28, i32 0, i32 2
  %30 = load ptr, ptr %29, align 8, !tbaa !34
  %31 = load ptr, ptr %3, align 8, !tbaa !39
  %32 = getelementptr inbounds nuw %struct.Vec_Ptr_t_, ptr %31, i32 0, i32 1
  %33 = load i32, ptr %32, align 4, !tbaa !24
  %34 = add nsw i32 %33, 1
  store i32 %34, ptr %32, align 4, !tbaa !24
  %35 = sext i32 %33 to i64
  %36 = getelementptr inbounds ptr, ptr %30, i64 %35
  store ptr %27, ptr %36, align 8, !tbaa !35
  ret void
}

; Function Attrs: nounwind uwtable
define ptr @Rwr_ManAddVar(ptr noundef %0, i32 noundef %1, i32 noundef %2) #0 {
  %4 = alloca ptr, align 8
  %5 = alloca i32, align 4
  %6 = alloca i32, align 4
  %7 = alloca ptr, align 8
  store ptr %0, ptr %4, align 8, !tbaa !3
  store i32 %1, ptr %5, align 4, !tbaa !8
  store i32 %2, ptr %6, align 4, !tbaa !8
  call void @llvm.lifetime.start.p0(i64 8, ptr %7) #6
  %8 = load ptr, ptr %4, align 8, !tbaa !3
  %9 = getelementptr inbounds nuw %struct.Rwr_Man_t_, ptr %8, i32 0, i32 11
  %10 = load ptr, ptr %9, align 8, !tbaa !46
  %11 = call ptr @Extra_MmFixedEntryFetch(ptr noundef %10)
  store ptr %11, ptr %7, align 8, !tbaa !21
  %12 = load ptr, ptr %4, align 8, !tbaa !3
  %13 = getelementptr inbounds nuw %struct.Rwr_Man_t_, ptr %12, i32 0, i32 8
  %14 = load ptr, ptr %13, align 8, !tbaa !10
  %15 = getelementptr inbounds nuw %struct.Vec_Ptr_t_, ptr %14, i32 0, i32 1
  %16 = load i32, ptr %15, align 4, !tbaa !24
  %17 = load ptr, ptr %7, align 8, !tbaa !21
  %18 = getelementptr inbounds nuw %struct.Rwr_Node_t_, ptr %17, i32 0, i32 0
  store i32 %16, ptr %18, align 8, !tbaa !36
  %19 = load ptr, ptr %7, align 8, !tbaa !21
  %20 = getelementptr inbounds nuw %struct.Rwr_Node_t_, ptr %19, i32 0, i32 1
  store i32 0, ptr %20, align 4, !tbaa !47
  %21 = load i32, ptr %5, align 4, !tbaa !8
  %22 = load ptr, ptr %7, align 8, !tbaa !21
  %23 = getelementptr inbounds nuw %struct.Rwr_Node_t_, ptr %22, i32 0, i32 5
  %24 = load i32, ptr %23, align 2
  %25 = and i32 %21, 65535
  %26 = and i32 %24, -65536
  %27 = or i32 %26, %25
  store i32 %27, ptr %23, align 2
  %28 = load ptr, ptr %7, align 8, !tbaa !21
  %29 = getelementptr inbounds nuw %struct.Rwr_Node_t_, ptr %28, i32 0, i32 5
  %30 = load i32, ptr %29, align 2
  %31 = and i32 %30, -1056964609
  %32 = or i32 %31, 0
  store i32 %32, ptr %29, align 2
  %33 = load ptr, ptr %7, align 8, !tbaa !21
  %34 = getelementptr inbounds nuw %struct.Rwr_Node_t_, ptr %33, i32 0, i32 5
  %35 = load i32, ptr %34, align 2
  %36 = and i32 %35, -16711681
  %37 = or i32 %36, 0
  store i32 %37, ptr %34, align 2
  %38 = load ptr, ptr %7, align 8, !tbaa !21
  %39 = getelementptr inbounds nuw %struct.Rwr_Node_t_, ptr %38, i32 0, i32 5
  %40 = load i32, ptr %39, align 2
  %41 = and i32 %40, -1073741825
  %42 = or i32 %41, 1073741824
  store i32 %42, ptr %39, align 2
  %43 = load ptr, ptr %7, align 8, !tbaa !21
  %44 = getelementptr inbounds nuw %struct.Rwr_Node_t_, ptr %43, i32 0, i32 5
  %45 = load i32, ptr %44, align 2
  %46 = and i32 %45, 2147483647
  %47 = or i32 %46, 0
  store i32 %47, ptr %44, align 2
  %48 = load ptr, ptr %7, align 8, !tbaa !21
  %49 = getelementptr inbounds nuw %struct.Rwr_Node_t_, ptr %48, i32 0, i32 7
  store ptr null, ptr %49, align 8, !tbaa !48
  %50 = load ptr, ptr %7, align 8, !tbaa !21
  %51 = getelementptr inbounds nuw %struct.Rwr_Node_t_, ptr %50, i32 0, i32 8
  store ptr null, ptr %51, align 8, !tbaa !49
  %52 = load ptr, ptr %7, align 8, !tbaa !21
  %53 = getelementptr inbounds nuw %struct.Rwr_Node_t_, ptr %52, i32 0, i32 9
  store ptr null, ptr %53, align 8, !tbaa !44
  %54 = load ptr, ptr %4, align 8, !tbaa !3
  %55 = getelementptr inbounds nuw %struct.Rwr_Man_t_, ptr %54, i32 0, i32 8
  %56 = load ptr, ptr %55, align 8, !tbaa !10
  %57 = load ptr, ptr %7, align 8, !tbaa !21
  call void @Vec_PtrPush(ptr noundef %56, ptr noundef %57)
  %58 = load i32, ptr %6, align 4, !tbaa !8
  %59 = icmp ne i32 %58, 0
  br i1 %59, label %60, label %68

60:                                               ; preds = %3
  %61 = load ptr, ptr %4, align 8, !tbaa !3
  %62 = getelementptr inbounds nuw %struct.Rwr_Man_t_, ptr %61, i32 0, i32 9
  %63 = load ptr, ptr %62, align 8, !tbaa !42
  %64 = load i32, ptr %5, align 4, !tbaa !8
  %65 = zext i32 %64 to i64
  %66 = getelementptr inbounds nuw ptr, ptr %63, i64 %65
  %67 = load ptr, ptr %7, align 8, !tbaa !21
  call void @Rwr_ListAddToTail(ptr noundef %66, ptr noundef %67)
  br label %68

68:                                               ; preds = %60, %3
  %69 = load ptr, ptr %7, align 8, !tbaa !21
  call void @llvm.lifetime.end.p0(i64 8, ptr %7) #6
  ret ptr %69
}