; Function Attrs: nounwind uwtable
define noundef ptr @Rwr_ManAddVar(ptr noundef readonly captures(none) %0, i32 noundef %1, i32 noundef %2) local_unnamed_addr #0 {
  %4 = getelementptr inbounds nuw i8, ptr %0, i64 88
  %5 = load ptr, ptr %4, align 8, !tbaa !45
  %6 = tail call ptr @Extra_MmFixedEntryFetch(ptr noundef %5) #10
  %7 = getelementptr inbounds nuw i8, ptr %0, i64 64
  %8 = load ptr, ptr %7, align 8, !tbaa !3
  %9 = getelementptr inbounds nuw i8, ptr %8, i64 4
  %10 = load i32, ptr %9, align 4, !tbaa !18
  store i32 %10, ptr %6, align 8, !tbaa !38
  %11 = getelementptr inbounds nuw i8, ptr %6, i64 4
  store i32 0, ptr %11, align 4, !tbaa !28
  %12 = getelementptr inbounds nuw i8, ptr %6, i64 14
  %13 = and i32 %1, 65535
  %14 = or disjoint i32 %13, 1073741824
  store i32 %14, ptr %12, align 2
  %15 = getelementptr inbounds nuw i8, ptr %6, i64 24
  tail call void @llvm.memset.p0.i64(ptr noundef nonnull align 8 dereferenceable(24) %15, i8 0, i64 24, i1 false)
  %16 = load ptr, ptr %7, align 8, !tbaa !3
  %17 = getelementptr inbounds nuw i8, ptr %16, i64 4
  %18 = load i32, ptr %17, align 4, !tbaa !18
  %19 = load i32, ptr %16, align 8, !tbaa !49
  %20 = icmp eq i32 %18, %19
  br i1 %20, label %21, label %.Vec_PtrGrow.exit11_crit_edge.i

.Vec_PtrGrow.exit11_crit_edge.i:                  ; preds = %3
  %.phi.trans.insert.i = getelementptr inbounds nuw i8, ptr %16, i64 8
  %.pre.i = load ptr, ptr %.phi.trans.insert.i, align 8, !tbaa !20
  br label %Vec_PtrPush.exit

21:                                               ; preds = %3
  %22 = icmp slt i32 %18, 16
  br i1 %22, label %23, label %31

23:                                               ; preds = %21
  %24 = getelementptr inbounds nuw i8, ptr %16, i64 8
  %25 = load ptr, ptr %24, align 8, !tbaa !20
  %.not9.i.i = icmp eq ptr %25, null
  br i1 %.not9.i.i, label %28, label %26

26:                                               ; preds = %23
  %27 = tail call dereferenceable_or_null(128) ptr @realloc(ptr noundef nonnull %25, i64 noundef 128) #11
  br label %Vec_PtrGrow.exit.i

28:                                               ; preds = %23
  %29 = tail call noalias dereferenceable_or_null(128) ptr @malloc(i64 noundef 128) #12
  br label %Vec_PtrGrow.exit.i

Vec_PtrGrow.exit.i:                               ; preds = %28, %26
  %30 = phi ptr [ %27, %26 ], [ %29, %28 ]
  store ptr %30, ptr %24, align 8, !tbaa !20
  store i32 16, ptr %16, align 8, !tbaa !49
  br label %Vec_PtrPush.exit

31:                                               ; preds = %21
  %32 = shl nuw nsw i32 %18, 1
  %33 = getelementptr inbounds nuw i8, ptr %16, i64 8
  %34 = load ptr, ptr %33, align 8, !tbaa !20
  %.not9.i10.i = icmp eq ptr %34, null
  %35 = zext nneg i32 %32 to i64
  %36 = shl nuw nsw i64 %35, 3
  br i1 %.not9.i10.i, label %39, label %37

37:                                               ; preds = %31
  %38 = tail call ptr @realloc(ptr noundef nonnull %34, i64 noundef %36) #11
  br label %41

39:                                               ; preds = %31
  %40 = tail call noalias ptr @malloc(i64 noundef %36) #12
  br label %41

41:                                               ; preds = %39, %37
  %42 = phi ptr [ %38, %37 ], [ %40, %39 ]
  store ptr %42, ptr %33, align 8, !tbaa !20
  store i32 %32, ptr %16, align 8, !tbaa !49
  br label %Vec_PtrPush.exit

Vec_PtrPush.exit:                                 ; preds = %.Vec_PtrGrow.exit11_crit_edge.i, %Vec_PtrGrow.exit.i, %41
  %43 = phi ptr [ %.pre.i, %.Vec_PtrGrow.exit11_crit_edge.i ], [ %42, %41 ], [ %30, %Vec_PtrGrow.exit.i ]
  %44 = load i32, ptr %17, align 4, !tbaa !18
  %45 = add nsw i32 %44, 1
  store i32 %45, ptr %17, align 4, !tbaa !18
  %46 = sext i32 %44 to i64
  %47 = getelementptr inbounds ptr, ptr %43, i64 %46
  store ptr %6, ptr %47, align 8, !tbaa !21
  %.not = icmp eq i32 %2, 0
  br i1 %.not, label %53, label %48

48:                                               ; preds = %Vec_PtrPush.exit
  %49 = getelementptr inbounds nuw i8, ptr %0, i64 72
  %50 = load ptr, ptr %49, align 8, !tbaa !42
  %51 = zext i32 %1 to i64
  %52 = getelementptr inbounds nuw ptr, ptr %50, i64 %51
  tail call void @Rwr_ListAddToTail(ptr noundef %52, ptr noundef nonnull %6) #10
  br label %53

53:                                               ; preds = %48, %Vec_PtrPush.exit
  ret ptr %6
}